target datalayout = "e-m:e-p270:32:32-p271:32:32-p272:64:64-i64:64-i128:128-f80:128-n8:16:32:64-S128"
target triple = "x86_64-pc-linux-gnu"

@ett_nt_data_blob = internal global i32 0, align 4
@hf_nt_data_blob_len = internal global i32 0, align 4
@hf_nt_data_blob_data = internal global i32 0, align 4

; Function Attrs: null_pointer_is_valid sspstrong uwtable
define hidden i32 @dissect_ndr_datablob(ptr noundef %0, i32 noundef %1, ptr noundef %2, ptr noundef %3, ptr noundef %4, ptr noundef %5, i32 noundef %6, i32 noundef %7) #0 {
  %9 = alloca ptr, align 8
  %10 = alloca i32, align 4
  %11 = alloca ptr, align 8
  %12 = alloca ptr, align 8
  %13 = alloca ptr, align 8
  %14 = alloca ptr, align 8
  %15 = alloca i32, align 4
  %16 = alloca i32, align 4
  %17 = alloca ptr, align 8
  %18 = alloca i64, align 8
  %19 = alloca ptr, align 8
  store ptr %0, ptr %9, align 8
  store i32 %1, ptr %10, align 4
  store ptr %2, ptr %11, align 8
  store ptr %3, ptr %12, align 8
  store ptr %4, ptr %13, align 8
  store ptr %5, ptr %14, align 8
  store i32 %6, ptr %15, align 4
  store i32 %7, ptr %16, align 4
  call void @llvm.lifetime.start.p0(i64 8, ptr %17) #13
  call void @llvm.lifetime.start.p0(i64 8, ptr %18) #13
  call void @llvm.lifetime.start.p0(i64 8, ptr %19) #13
  %20 = load ptr, ptr %12, align 8
  %21 = load ptr, ptr %9, align 8
  %22 = load i32, ptr %10, align 4
  %23 = load i32, ptr @ett_nt_data_blob, align 4
  %24 = load i32, ptr %15, align 4
  %25 = call ptr @proto_registrar_get_name(i32 noundef %24)
  %26 = call ptr @proto_tree_add_subtree(ptr noundef %20, ptr noundef %21, i32 noundef %22, i32 noundef 0, i32 noundef %23, ptr noundef %17, ptr noundef %25)
  store ptr %26, ptr %19, align 8
  %27 = load i32, ptr %16, align 4
  %28 = icmp ne i32 %27, 0
  br i1 %28, label %29, label %34

29:                                               ; preds = %8
  %30 = load ptr, ptr %9, align 8
  %31 = load i32, ptr %10, align 4
  %32 = call i32 @tvb_captured_length_remaining(ptr noundef %30, i32 noundef %31)
  %33 = sext i32 %32 to i64
  store i64 %33, ptr %18, align 8
  br label %43

34:                                               ; preds = %8
  %35 = load ptr, ptr %9, align 8
  %36 = load i32, ptr %10, align 4
  %37 = load ptr, ptr %11, align 8
  %38 = load ptr, ptr %19, align 8
  %39 = load ptr, ptr %13, align 8
  %40 = load ptr, ptr %14, align 8
  %41 = load i32, ptr @hf_nt_data_blob_len, align 4
  %42 = call i32 @dissect_ndr_uint3264(ptr noundef %35, i32 noundef %36, ptr noundef %37, ptr noundef %38, ptr noundef %39, ptr noundef %40, i32 noundef %41, ptr noundef %18)
  store i32 %42, ptr %10, align 4
  br label %43

43:                                               ; preds = %34, %29
  %44 = load ptr, ptr %19, align 8
  %45 = load i32, ptr @hf_nt_data_blob_data, align 4
  %46 = load ptr, ptr %9, align 8
  %47 = load i32, ptr %10, align 4
  %48 = load i64, ptr %18, align 8
  %49 = trunc i64 %48 to i32
  %50 = call ptr @proto_tree_add_item(ptr noundef %44, i32 noundef %45, ptr noundef %46, i32 noundef %47, i32 noundef %49, i32 noundef 0)
  %51 = load i64, ptr %18, align 8
  %52 = trunc i64 %51 to i32
  %53 = load i32, ptr %10, align 4
  %54 = add i32 %53, %52
  store i32 %54, ptr %10, align 4
  %55 = load i32, ptr %10, align 4
  call void @llvm.lifetime.end.p0(i64 8, ptr %19) #13
  call void @llvm.lifetime.end.p0(i64 8, ptr %18) #13
  call void @llvm.lifetime.end.p0(i64 8, ptr %17) #13
  ret i32 %55
}