; Function Attrs: null_pointer_is_valid sspstrong uwtable
define hidden i32 @dissect_ndr_datablob(ptr noundef %0, i32 noundef %1, ptr noundef %2, ptr noundef %3, ptr noundef %4, ptr noundef %5, i32 noundef %6, i32 noundef %7) local_unnamed_addr #0 {
  %9 = alloca ptr, align 8
  %10 = alloca i64, align 8
  call void @llvm.lifetime.start.p0(i64 8, ptr nonnull %9) #9
  call void @llvm.lifetime.start.p0(i64 8, ptr nonnull %10) #9
  %11 = load i32, ptr @ett_nt_data_blob, align 4
  %12 = tail call ptr @proto_registrar_get_name(i32 noundef %6)
  %13 = call ptr @proto_tree_add_subtree(ptr noundef %3, ptr noundef %0, i32 noundef %1, i32 noundef 0, i32 noundef %11, ptr noundef nonnull %9, ptr noundef %12)
  %.not = icmp eq i32 %7, 0
  br i1 %.not, label %17, label %14

14:                                               ; preds = %8
  %15 = call i32 @tvb_captured_length_remaining(ptr noundef %0, i32 noundef %1)
  %16 = sext i32 %15 to i64
  store i64 %16, ptr %10, align 8
  br label %21

17:                                               ; preds = %8
  %18 = load i32, ptr @hf_nt_data_blob_len, align 4
  %19 = call i32 @dissect_ndr_uint3264(ptr noundef %0, i32 noundef %1, ptr noundef %2, ptr noundef %13, ptr noundef %4, ptr noundef %5, i32 noundef %18, ptr noundef nonnull %10)
  %.pre = load i64, ptr %10, align 8
  %20 = trunc i64 %.pre to i32
  br label %21

21:                                               ; preds = %17, %14
  %22 = phi i32 [ %15, %14 ], [ %20, %17 ]
  %.0 = phi i32 [ %1, %14 ], [ %19, %17 ]
  %23 = load i32, ptr @hf_nt_data_blob_data, align 4
  %24 = call ptr @proto_tree_add_item(ptr noundef %13, i32 noundef %23, ptr noundef %0, i32 noundef %.0, i32 noundef %22, i32 noundef 0)
  %25 = load i64, ptr %10, align 8
  %26 = trunc i64 %25 to i32
  %27 = add i32 %.0, %26
  call void @llvm.lifetime.end.p0(i64 8, ptr nonnull %10) #9
  call void @llvm.lifetime.end.p0(i64 8, ptr nonnull %9) #9
  ret i32 %27
}